; Function Attrs: mustprogress uwtable
define hidden void @_ZN6Assimp4Ogre20OgreBinarySerializer8ReadLineB5cxx11Ev(ptr noalias nonnull sret(%"class.std::__cxx11::basic_string") align 8 %agg.result, ptr nocapture noundef nonnull readonly align 8 dereferenceable(20) %this) local_unnamed_addr #2 align 2 personality ptr @__gxx_personality_v0 {
entry:
  tail call void @_ZNSt7__cxx1112basic_stringIcSt11char_traitsIcESaIcEEC1Ev(ptr noundef nonnull align 8 dereferenceable(32) %agg.result) #19
  %m_reader.i = getelementptr inbounds i8, ptr %this, i64 8
  br label %invoke.cont

invoke.cont:                                      ; preds = %entry, %if.end
  %0 = load ptr, ptr %m_reader.i, align 8
  %mEnd.i.i = getelementptr inbounds i8, ptr %0, i64 32
  %1 = load ptr, ptr %mEnd.i.i, align 8
  %mCurrent.i.i = getelementptr inbounds i8, ptr %0, i64 24
  %2 = load ptr, ptr %mCurrent.i.i, align 8
  %sub.ptr.lhs.cast.i.i = ptrtoint ptr %1 to i64
  %sub.ptr.rhs.cast.i.i = ptrtoint ptr %2 to i64
  %sub.ptr.sub.i.i = sub i64 %sub.ptr.lhs.cast.i.i, %sub.ptr.rhs.cast.i.i
  %conv2.i.i = and i64 %sub.ptr.sub.i.i, 4294967295
  %cmp.i = icmp eq i64 %conv2.i.i, 0
  br i1 %cmp.i, label %nrvo.skipdtor, label %while.body

while.body:                                       ; preds = %invoke.cont
  %add.ptr.i.i.i = getelementptr inbounds i8, ptr %2, i64 1
  %mLimit.i.i.i = getelementptr inbounds i8, ptr %0, i64 40
  %3 = load ptr, ptr %mLimit.i.i.i, align 8
  %cmp.i.i.i = icmp ugt ptr %add.ptr.i.i.i, %3
  br i1 %cmp.i.i.i, label %if.then.i.i.i, label %invoke.cont2

if.then.i.i.i:                                    ; preds = %while.body
  %exception.i.i.i = tail call ptr @__cxa_allocate_exception(i64 16) #19
  invoke void @_ZN17DeadlyImportErrorC2EPKc(ptr noundef nonnull align 8 dereferenceable(16) %exception.i.i.i, ptr noundef nonnull @.str.66)
          to label %invoke.cont.i.i.i unwind label %lpad.i.i.i

invoke.cont.i.i.i:                                ; preds = %if.then.i.i.i
  invoke void @__cxa_throw(ptr nonnull %exception.i.i.i, ptr nonnull @_ZTI17DeadlyImportError, ptr nonnull @_ZN17DeadlyImportErrorD2Ev) #20
          to label %.noexc unwind label %lpad.loopexit.split-lp

.noexc:                                           ; preds = %invoke.cont.i.i.i
  unreachable

lpad.i.i.i:                                       ; preds = %if.then.i.i.i
  %4 = landingpad { ptr, i32 }
          cleanup
  tail call void @__cxa_free_exception(ptr %exception.i.i.i) #19
  br label %lpad.body

invoke.cont2:                                     ; preds = %while.body
  %5 = load i8, ptr %2, align 1
  store ptr %add.ptr.i.i.i, ptr %mCurrent.i.i, align 8
  %cmp = icmp eq i8 %5, 10
  br i1 %cmp, label %nrvo.skipdtor, label %if.end

lpad.loopexit:                                    ; preds = %if.end
  %lpad.loopexit3 = landingpad { ptr, i32 }
          cleanup
  br label %lpad.body

lpad.loopexit.split-lp:                           ; preds = %invoke.cont.i.i.i
  %lpad.loopexit.split-lp4 = landingpad { ptr, i32 }
          cleanup
  br label %lpad.body

lpad.body:                                        ; preds = %lpad.loopexit, %lpad.loopexit.split-lp, %lpad.i.i.i
  %eh.lpad-body = phi { ptr, i32 } [ %4, %lpad.i.i.i ], [ %lpad.loopexit3, %lpad.loopexit ], [ %lpad.loopexit.split-lp4, %lpad.loopexit.split-lp ]
  tail call void @_ZNSt7__cxx1112basic_stringIcSt11char_traitsIcESaIcEED1Ev(ptr noundef nonnull align 8 dereferenceable(32) %agg.result) #19
  resume { ptr, i32 } %eh.lpad-body

if.end:                                           ; preds = %invoke.cont2
  %call5 = invoke noundef nonnull align 8 dereferenceable(32) ptr @_ZNSt7__cxx1112basic_stringIcSt11char_traitsIcESaIcEEpLEc(ptr noundef nonnull align 8 dereferenceable(32) %agg.result, i8 noundef signext %5)
          to label %invoke.cont unwind label %lpad.loopexit, !llvm.loop !4

nrvo.skipdtor:                                    ; preds = %invoke.cont, %invoke.cont2
  ret void
}